target datalayout = "e-m:e-p270:32:32-p271:32:32-p272:64:64-i64:64-i128:128-f80:128-n8:16:32:64-S128"
target triple = "x86_64-pc-linux-gnu"

%struct.png_struct_def = type { [1 x %struct.__jmp_buf_tag], ptr, ptr, i64, ptr, ptr, ptr, ptr, ptr, ptr, ptr, ptr, i8, i8, i32, i32, i32, i32, %struct.z_stream_s, i32, i32, i32, i32, i64, i32, i32, i32, ptr, ptr, i64, i32, i32, ptr, i16, i32, i16, i8, i8, i8, i8, i8, i8, i8, i8, i8, i8, i8, i8, i8, i8, i16, i8, i32, %struct.png_color_16_struct, %struct.png_color_16_struct, i32, i32, ptr, ptr, ptr, ptr, ptr, ptr, %struct.png_color_8_struct, %struct.png_color_8_struct, ptr, %struct.png_color_16_struct, ptr, ptr, ptr, ptr, ptr, ptr, ptr, ptr, ptr, i32, i32, i64, i64, i64, i64, i32, i32, ptr, ptr, [29 x i8], i32, ptr, ptr, i32, i32, ptr, i8, i8, i16, i16, ptr, i32, i8, ptr, ptr, ptr, ptr, ptr, ptr, ptr, i8, i32, i32, i32, i64, %struct.png_unknown_chunk_t, i64, ptr, i64, i32, i32, ptr, [4 x ptr], %struct.png_colorspace }
%struct.__jmp_buf_tag = type { [8 x i64], i32, %struct.__sigset_t }
%struct.__sigset_t = type { [16 x i64] }
%struct.z_stream_s = type { ptr, i32, i64, ptr, i32, i64, ptr, ptr, ptr, ptr, ptr, i32, i64, i64 }
%struct.png_color_8_struct = type { i8, i8, i8, i8, i8 }
%struct.png_color_16_struct = type { i8, i16, i16, i16, i16 }
%struct.png_unknown_chunk_t = type { [5 x i8], ptr, i64, i8 }
%struct.png_colorspace = type { i32, %struct.png_xy, %struct.png_XYZ, i16, i16 }
%struct.png_xy = type { i32, i32, i32, i32, i32, i32, i32, i32 }
%struct.png_XYZ = type { i32, i32, i32, i32, i32, i32, i32, i32, i32 }
%struct.png_image = type { ptr, i32, i32, i32, i32, i32, i32, i32, [64 x i8] }
%struct.png_control = type { ptr, ptr, ptr, ptr, i64, i8 }

; Function Attrs: nounwind uwtable
define internal i32 @png_image_format(ptr noalias noundef %0) #0 {
  %2 = alloca ptr, align 8
  %3 = alloca i32, align 4
  store ptr %0, ptr %2, align 8
  store i32 0, ptr %3, align 4
  %4 = load ptr, ptr %2, align 8
  %5 = getelementptr inbounds %struct.png_struct_def, ptr %4, i32 0, i32 41
  %6 = load i8, ptr %5, align 1
  %7 = zext i8 %6 to i32
  %8 = and i32 %7, 2
  %9 = icmp ne i32 %8, 0
  br i1 %9, label %10, label %13

10:                                               ; preds = %1
  %11 = load i32, ptr %3, align 4
  %12 = or i32 %11, 2
  store i32 %12, ptr %3, align 4
  br label %13

13:                                               ; preds = %10, %1
  %14 = load ptr, ptr %2, align 8
  %15 = getelementptr inbounds %struct.png_struct_def, ptr %14, i32 0, i32 41
  %16 = load i8, ptr %15, align 1
  %17 = zext i8 %16 to i32
  %18 = and i32 %17, 4
  %19 = icmp ne i32 %18, 0
  br i1 %19, label %20, label %23

20:                                               ; preds = %13
  %21 = load i32, ptr %3, align 4
  %22 = or i32 %21, 1
  store i32 %22, ptr %3, align 4
  br label %33

23:                                               ; preds = %13
  %24 = load ptr, ptr %2, align 8
  %25 = getelementptr inbounds %struct.png_struct_def, ptr %24, i32 0, i32 35
  %26 = load i16, ptr %25, align 8
  %27 = zext i16 %26 to i32
  %28 = icmp sgt i32 %27, 0
  br i1 %28, label %29, label %32

29:                                               ; preds = %23
  %30 = load i32, ptr %3, align 4
  %31 = or i32 %30, 1
  store i32 %31, ptr %3, align 4
  br label %32

32:                                               ; preds = %29, %23
  br label %33

33:                                               ; preds = %32, %20
  %34 = load ptr, ptr %2, align 8
  %35 = getelementptr inbounds %struct.png_struct_def, ptr %34, i32 0, i32 42
  %36 = load i8, ptr %35, align 8
  %37 = zext i8 %36 to i32
  %38 = icmp eq i32 %37, 16
  br i1 %38, label %39, label %42

39:                                               ; preds = %33
  %40 = load i32, ptr %3, align 4
  %41 = or i32 %40, 4
  store i32 %41, ptr %3, align 4
  br label %42

42:                                               ; preds = %39, %33
  %43 = load ptr, ptr %2, align 8
  %44 = getelementptr inbounds %struct.png_struct_def, ptr %43, i32 0, i32 41
  %45 = load i8, ptr %44, align 1
  %46 = zext i8 %45 to i32
  %47 = and i32 %46, 1
  %48 = icmp ne i32 %47, 0
  br i1 %48, label %49, label %52

49:                                               ; preds = %42
  %50 = load i32, ptr %3, align 4
  %51 = or i32 %50, 8
  store i32 %51, ptr %3, align 4
  br label %52

52:                                               ; preds = %49, %42
  %53 = load i32, ptr %3, align 4
  ret i32 %53
}

; Function Attrs: nounwind uwtable
define internal i32 @png_image_read_header(ptr noundef %0) #0 {
  %2 = alloca ptr, align 8
  %3 = alloca ptr, align 8
  %4 = alloca ptr, align 8
  %5 = alloca ptr, align 8
  %6 = alloca i32, align 4
  %7 = alloca i32, align 4
  store ptr %0, ptr %2, align 8
  %8 = load ptr, ptr %2, align 8
  store ptr %8, ptr %3, align 8
  %9 = load ptr, ptr %3, align 8
  %10 = getelementptr inbounds %struct.png_image, ptr %9, i32 0, i32 0
  %11 = load ptr, ptr %10, align 8
  %12 = getelementptr inbounds %struct.png_control, ptr %11, i32 0, i32 0
  %13 = load ptr, ptr %12, align 8
  store ptr %13, ptr %4, align 8
  %14 = load ptr, ptr %3, align 8
  %15 = getelementptr inbounds %struct.png_image, ptr %14, i32 0, i32 0
  %16 = load ptr, ptr %15, align 8
  %17 = getelementptr inbounds %struct.png_control, ptr %16, i32 0, i32 1
  %18 = load ptr, ptr %17, align 8
  store ptr %18, ptr %5, align 8
  %19 = load ptr, ptr %4, align 8
  call void @png_set_benign_errors(ptr noundef %19, i32 noundef 1)
  %20 = load ptr, ptr %4, align 8
  %21 = load ptr, ptr %5, align 8
  call void @png_read_info(ptr noundef %20, ptr noundef %21)
  %22 = load ptr, ptr %4, align 8
  %23 = getelementptr inbounds %struct.png_struct_def, ptr %22, i32 0, i32 19
  %24 = load i32, ptr %23, align 8
  %25 = load ptr, ptr %3, align 8
  %26 = getelementptr inbounds %struct.png_image, ptr %25, i32 0, i32 2
  store i32 %24, ptr %26, align 4
  %27 = load ptr, ptr %4, align 8
  %28 = getelementptr inbounds %struct.png_struct_def, ptr %27, i32 0, i32 20
  %29 = load i32, ptr %28, align 4
  %30 = load ptr, ptr %3, align 8
  %31 = getelementptr inbounds %struct.png_image, ptr %30, i32 0, i32 3
  store i32 %29, ptr %31, align 8
  %32 = load ptr, ptr %4, align 8
  %33 = call i32 @png_image_format(ptr noundef %32)
  store i32 %33, ptr %6, align 4
  %34 = load i32, ptr %6, align 4
  %35 = load ptr, ptr %3, align 8
  %36 = getelementptr inbounds %struct.png_image, ptr %35, i32 0, i32 4
  store i32 %34, ptr %36, align 4
  %37 = load i32, ptr %6, align 4
  %38 = and i32 %37, 2
  %39 = icmp ne i32 %38, 0
  br i1 %39, label %40, label %53

40:                                               ; preds = %1
  %41 = load ptr, ptr %4, align 8
  %42 = getelementptr inbounds %struct.png_struct_def, ptr %41, i32 0, i32 120
  %43 = getelementptr inbounds %struct.png_colorspace, ptr %42, i32 0, i32 4
  %44 = load i16, ptr %43, align 2
  %45 = zext i16 %44 to i32
  %46 = and i32 %45, 32834
  %47 = icmp eq i32 %46, 2
  br i1 %47, label %48, label %53

48:                                               ; preds = %40
  %49 = load ptr, ptr %3, align 8
  %50 = getelementptr inbounds %struct.png_image, ptr %49, i32 0, i32 5
  %51 = load i32, ptr %50, align 8
  %52 = or i32 %51, 1
  store i32 %52, ptr %50, align 8
  br label %53

53:                                               ; preds = %48, %40, %1
  %54 = load ptr, ptr %4, align 8
  %55 = getelementptr inbounds %struct.png_struct_def, ptr %54, i32 0, i32 41
  %56 = load i8, ptr %55, align 1
  %57 = zext i8 %56 to i32
  switch i32 %57, label %69 [
    i32 0, label %58
    i32 3, label %64
  ]

58:                                               ; preds = %53
  %59 = load ptr, ptr %4, align 8
  %60 = getelementptr inbounds %struct.png_struct_def, ptr %59, i32 0, i32 42
  %61 = load i8, ptr %60, align 8
  %62 = zext i8 %61 to i32
  %63 = shl i32 1, %62
  store i32 %63, ptr %7, align 4
  br label %70

64:                                               ; preds = %53
  %65 = load ptr, ptr %4, align 8
  %66 = getelementptr inbounds %struct.png_struct_def, ptr %65, i32 0, i32 33
  %67 = load i16, ptr %66, align 8
  %68 = zext i16 %67 to i32
  store i32 %68, ptr %7, align 4
  br label %70

69:                                               ; preds = %53
  store i32 256, ptr %7, align 4
  br label %70

70:                                               ; preds = %69, %64, %58
  %71 = load i32, ptr %7, align 4
  %72 = icmp ugt i32 %71, 256
  br i1 %72, label %73, label %74

73:                                               ; preds = %70
  store i32 256, ptr %7, align 4
  br label %74

74:                                               ; preds = %73, %70
  %75 = load i32, ptr %7, align 4
  %76 = load ptr, ptr %3, align 8
  %77 = getelementptr inbounds %struct.png_image, ptr %76, i32 0, i32 6
  store i32 %75, ptr %77, align 4
  ret i32 1
}